Archive member included to satisfy reference by file (symbol)

c:/users/tazvi/downloads/avr8-gnu-toolchain-3.7.0.1796-win32.any.x86_64 (1)/avr8-gnu-toolchain-win32_x86_64/bin/../lib/gcc/avr/7.3.0/../../../../avr/lib/avr5\libprintf_flt.a(vfprintf_flt.o)
                              (vfprintf)
c:/users/tazvi/downloads/avr8-gnu-toolchain-3.7.0.1796-win32.any.x86_64 (1)/avr8-gnu-toolchain-win32_x86_64/bin/../lib/gcc/avr/7.3.0/../../../../avr/lib/avr5\libm.a(floatsisf.o)
                              build/default/debug/Button_Mode.o (__floatunsisf)
c:/users/tazvi/downloads/avr8-gnu-toolchain-3.7.0.1796-win32.any.x86_64 (1)/avr8-gnu-toolchain-win32_x86_64/bin/../lib/gcc/avr/7.3.0/../../../../avr/lib/avr5\libm.a(mulsf3.o)
                              build/default/debug/Button_Mode.o (__mulsf3)
c:/users/tazvi/downloads/avr8-gnu-toolchain-3.7.0.1796-win32.any.x86_64 (1)/avr8-gnu-toolchain-win32_x86_64/bin/../lib/gcc/avr/7.3.0/../../../../avr/lib/avr5\libm.a(mulsf3x.o)
                              c:/users/tazvi/downloads/avr8-gnu-toolchain-3.7.0.1796-win32.any.x86_64 (1)/avr8-gnu-toolchain-win32_x86_64/bin/../lib/gcc/avr/7.3.0/../../../../avr/lib/avr5\libm.a(mulsf3.o) (__mulsf3x)
c:/users/tazvi/downloads/avr8-gnu-toolchain-3.7.0.1796-win32.any.x86_64 (1)/avr8-gnu-toolchain-win32_x86_64/bin/../lib/gcc/avr/7.3.0/../../../../avr/lib/avr5\libm.a(fp_inf.o)
                              c:/users/tazvi/downloads/avr8-gnu-toolchain-3.7.0.1796-win32.any.x86_64 (1)/avr8-gnu-toolchain-win32_x86_64/bin/../lib/gcc/avr/7.3.0/../../../../avr/lib/avr5\libm.a(mulsf3x.o) (__fp_inf)
c:/users/tazvi/downloads/avr8-gnu-toolchain-3.7.0.1796-win32.any.x86_64 (1)/avr8-gnu-toolchain-win32_x86_64/bin/../lib/gcc/avr/7.3.0/../../../../avr/lib/avr5\libm.a(fp_nan.o)
                              c:/users/tazvi/downloads/avr8-gnu-toolchain-3.7.0.1796-win32.any.x86_64 (1)/avr8-gnu-toolchain-win32_x86_64/bin/../lib/gcc/avr/7.3.0/../../../../avr/lib/avr5\libm.a(mulsf3x.o) (__fp_nan)
c:/users/tazvi/downloads/avr8-gnu-toolchain-3.7.0.1796-win32.any.x86_64 (1)/avr8-gnu-toolchain-win32_x86_64/bin/../lib/gcc/avr/7.3.0/../../../../avr/lib/avr5\libm.a(fp_pscA.o)
                              c:/users/tazvi/downloads/avr8-gnu-toolchain-3.7.0.1796-win32.any.x86_64 (1)/avr8-gnu-toolchain-win32_x86_64/bin/../lib/gcc/avr/7.3.0/../../../../avr/lib/avr5\libm.a(mulsf3x.o) (__fp_pscA)
c:/users/tazvi/downloads/avr8-gnu-toolchain-3.7.0.1796-win32.any.x86_64 (1)/avr8-gnu-toolchain-win32_x86_64/bin/../lib/gcc/avr/7.3.0/../../../../avr/lib/avr5\libm.a(fp_pscB.o)
                              c:/users/tazvi/downloads/avr8-gnu-toolchain-3.7.0.1796-win32.any.x86_64 (1)/avr8-gnu-toolchain-win32_x86_64/bin/../lib/gcc/avr/7.3.0/../../../../avr/lib/avr5\libm.a(mulsf3x.o) (__fp_pscB)
c:/users/tazvi/downloads/avr8-gnu-toolchain-3.7.0.1796-win32.any.x86_64 (1)/avr8-gnu-toolchain-win32_x86_64/bin/../lib/gcc/avr/7.3.0/../../../../avr/lib/avr5\libm.a(fp_round.o)
                              c:/users/tazvi/downloads/avr8-gnu-toolchain-3.7.0.1796-win32.any.x86_64 (1)/avr8-gnu-toolchain-win32_x86_64/bin/../lib/gcc/avr/7.3.0/../../../../avr/lib/avr5\libm.a(mulsf3.o) (__fp_round)
c:/users/tazvi/downloads/avr8-gnu-toolchain-3.7.0.1796-win32.any.x86_64 (1)/avr8-gnu-toolchain-win32_x86_64/bin/../lib/gcc/avr/7.3.0/../../../../avr/lib/avr5\libm.a(fp_split3.o)
                              c:/users/tazvi/downloads/avr8-gnu-toolchain-3.7.0.1796-win32.any.x86_64 (1)/avr8-gnu-toolchain-win32_x86_64/bin/../lib/gcc/avr/7.3.0/../../../../avr/lib/avr5\libm.a(mulsf3x.o) (__fp_split3)
c:/users/tazvi/downloads/avr8-gnu-toolchain-3.7.0.1796-win32.any.x86_64 (1)/avr8-gnu-toolchain-win32_x86_64/bin/../lib/gcc/avr/7.3.0/../../../../avr/lib/avr5\libm.a(fp_zero.o)
                              c:/users/tazvi/downloads/avr8-gnu-toolchain-3.7.0.1796-win32.any.x86_64 (1)/avr8-gnu-toolchain-win32_x86_64/bin/../lib/gcc/avr/7.3.0/../../../../avr/lib/avr5\libm.a(mulsf3x.o) (__fp_szero)
c:/users/tazvi/downloads/avr8-gnu-toolchain-3.7.0.1796-win32.any.x86_64 (1)/avr8-gnu-toolchain-win32_x86_64/bin/../lib/gcc/avr/7.3.0/avr5\libgcc.a(_exit.o)
                              C:/Users/tazvi/.mchp_packs/Microchip/ATmega_DFP/3.2.269/gcc/dev/atmega328p/avr5/crtatmega328p.o (exit)
c:/users/tazvi/downloads/avr8-gnu-toolchain-3.7.0.1796-win32.any.x86_64 (1)/avr8-gnu-toolchain-win32_x86_64/bin/../lib/gcc/avr/7.3.0/avr5\libgcc.a(_copy_data.o)
                              build/default/debug/Button_Mode.o (__do_copy_data)
c:/users/tazvi/downloads/avr8-gnu-toolchain-3.7.0.1796-win32.any.x86_64 (1)/avr8-gnu-toolchain-win32_x86_64/bin/../lib/gcc/avr/7.3.0/avr5\libgcc.a(_clear_bss.o)
                              build/default/debug/lcd.o (__do_clear_bss)
c:/users/tazvi/downloads/avr8-gnu-toolchain-3.7.0.1796-win32.any.x86_64 (1)/avr8-gnu-toolchain-win32_x86_64/bin/../lib/gcc/avr/7.3.0/avr5\libgcc.a(_prologue.o)
                              c:/users/tazvi/downloads/avr8-gnu-toolchain-3.7.0.1796-win32.any.x86_64 (1)/avr8-gnu-toolchain-win32_x86_64/bin/../lib/gcc/avr/7.3.0/../../../../avr/lib/avr5\libprintf_flt.a(vfprintf_flt.o) (__prologue_saves__)
c:/users/tazvi/downloads/avr8-gnu-toolchain-3.7.0.1796-win32.any.x86_64 (1)/avr8-gnu-toolchain-win32_x86_64/bin/../lib/gcc/avr/7.3.0/avr5\libgcc.a(_epilogue.o)
                              c:/users/tazvi/downloads/avr8-gnu-toolchain-3.7.0.1796-win32.any.x86_64 (1)/avr8-gnu-toolchain-win32_x86_64/bin/../lib/gcc/avr/7.3.0/../../../../avr/lib/avr5\libprintf_flt.a(vfprintf_flt.o) (__epilogue_restores__)
c:/users/tazvi/downloads/avr8-gnu-toolchain-3.7.0.1796-win32.any.x86_64 (1)/avr8-gnu-toolchain-win32_x86_64/bin/../lib/gcc/avr/7.3.0/../../../../avr/lib/avr5\libc.a(ftoa_engine.o)
                              c:/users/tazvi/downloads/avr8-gnu-toolchain-3.7.0.1796-win32.any.x86_64 (1)/avr8-gnu-toolchain-win32_x86_64/bin/../lib/gcc/avr/7.3.0/../../../../avr/lib/avr5\libprintf_flt.a(vfprintf_flt.o) (__ftoa_engine)
c:/users/tazvi/downloads/avr8-gnu-toolchain-3.7.0.1796-win32.any.x86_64 (1)/avr8-gnu-toolchain-win32_x86_64/bin/../lib/gcc/avr/7.3.0/../../../../avr/lib/avr5\libc.a(strnlen_P.o)
                              c:/users/tazvi/downloads/avr8-gnu-toolchain-3.7.0.1796-win32.any.x86_64 (1)/avr8-gnu-toolchain-win32_x86_64/bin/../lib/gcc/avr/7.3.0/../../../../avr/lib/avr5\libprintf_flt.a(vfprintf_flt.o) (strnlen_P)
c:/users/tazvi/downloads/avr8-gnu-toolchain-3.7.0.1796-win32.any.x86_64 (1)/avr8-gnu-toolchain-win32_x86_64/bin/../lib/gcc/avr/7.3.0/../../../../avr/lib/avr5\libc.a(strnlen.o)
                              c:/users/tazvi/downloads/avr8-gnu-toolchain-3.7.0.1796-win32.any.x86_64 (1)/avr8-gnu-toolchain-win32_x86_64/bin/../lib/gcc/avr/7.3.0/../../../../avr/lib/avr5\libprintf_flt.a(vfprintf_flt.o) (strnlen)
c:/users/tazvi/downloads/avr8-gnu-toolchain-3.7.0.1796-win32.any.x86_64 (1)/avr8-gnu-toolchain-win32_x86_64/bin/../lib/gcc/avr/7.3.0/../../../../avr/lib/avr5\libc.a(fprintf.o)
                              build/default/debug/Button_Mode.o (fprintf)
c:/users/tazvi/downloads/avr8-gnu-toolchain-3.7.0.1796-win32.any.x86_64 (1)/avr8-gnu-toolchain-win32_x86_64/bin/../lib/gcc/avr/7.3.0/../../../../avr/lib/avr5\libc.a(fputc.o)
                              c:/users/tazvi/downloads/avr8-gnu-toolchain-3.7.0.1796-win32.any.x86_64 (1)/avr8-gnu-toolchain-win32_x86_64/bin/../lib/gcc/avr/7.3.0/../../../../avr/lib/avr5\libprintf_flt.a(vfprintf_flt.o) (fputc)
c:/users/tazvi/downloads/avr8-gnu-toolchain-3.7.0.1796-win32.any.x86_64 (1)/avr8-gnu-toolchain-win32_x86_64/bin/../lib/gcc/avr/7.3.0/../../../../avr/lib/avr5\libc.a(ultoa_invert.o)
                              c:/users/tazvi/downloads/avr8-gnu-toolchain-3.7.0.1796-win32.any.x86_64 (1)/avr8-gnu-toolchain-win32_x86_64/bin/../lib/gcc/avr/7.3.0/../../../../avr/lib/avr5\libprintf_flt.a(vfprintf_flt.o) (__ultoa_invert)

Discarded input sections

 .data          0x0000000000000000        0x0 C:/Users/tazvi/.mchp_packs/Microchip/ATmega_DFP/3.2.269/gcc/dev/atmega328p/avr5/crtatmega328p.o
 .bss           0x0000000000000000        0x0 C:/Users/tazvi/.mchp_packs/Microchip/ATmega_DFP/3.2.269/gcc/dev/atmega328p/avr5/crtatmega328p.o
 .text          0x0000000000000000        0x0 c:/users/tazvi/downloads/avr8-gnu-toolchain-3.7.0.1796-win32.any.x86_64 (1)/avr8-gnu-toolchain-win32_x86_64/bin/../lib/gcc/avr/7.3.0/../../../../avr/lib/avr5\libprintf_flt.a(vfprintf_flt.o)
 .data          0x0000000000000000        0x0 c:/users/tazvi/downloads/avr8-gnu-toolchain-3.7.0.1796-win32.any.x86_64 (1)/avr8-gnu-toolchain-win32_x86_64/bin/../lib/gcc/avr/7.3.0/../../../../avr/lib/avr5\libprintf_flt.a(vfprintf_flt.o)
 .bss           0x0000000000000000        0x0 c:/users/tazvi/downloads/avr8-gnu-toolchain-3.7.0.1796-win32.any.x86_64 (1)/avr8-gnu-toolchain-win32_x86_64/bin/../lib/gcc/avr/7.3.0/../../../../avr/lib/avr5\libprintf_flt.a(vfprintf_flt.o)
 .text          0x0000000000000000        0x0 build/default/debug/Button_Mode.o
 .data          0x0000000000000000        0x0 build/default/debug/Button_Mode.o
 .bss           0x0000000000000000        0x0 build/default/debug/Button_Mode.o
 .text          0x0000000000000000        0x0 build/default/debug/lcd.o
 .data          0x0000000000000000        0x0 build/default/debug/lcd.o
 .bss           0x0000000000000000        0x0 build/default/debug/lcd.o
 .text          0x0000000000000000        0x0 build/default/debug/hd44780.o
 .data          0x0000000000000000        0x0 build/default/debug/hd44780.o
 .bss           0x0000000000000000        0x0 build/default/debug/hd44780.o
 .text.hd44780_powerdown
                0x0000000000000000        0xe build/default/debug/hd44780.o
 .text          0x0000000000000000        0x0 c:/users/tazvi/downloads/avr8-gnu-toolchain-3.7.0.1796-win32.any.x86_64 (1)/avr8-gnu-toolchain-win32_x86_64/bin/../lib/gcc/avr/7.3.0/../../../../avr/lib/avr5\libm.a(floatsisf.o)
 .data          0x0000000000000000        0x0 c:/users/tazvi/downloads/avr8-gnu-toolchain-3.7.0.1796-win32.any.x86_64 (1)/avr8-gnu-toolchain-win32_x86_64/bin/../lib/gcc/avr/7.3.0/../../../../avr/lib/avr5\libm.a(floatsisf.o)
 .bss           0x0000000000000000        0x0 c:/users/tazvi/downloads/avr8-gnu-toolchain-3.7.0.1796-win32.any.x86_64 (1)/avr8-gnu-toolchain-win32_x86_64/bin/../lib/gcc/avr/7.3.0/../../../../avr/lib/avr5\libm.a(floatsisf.o)
 .text          0x0000000000000000        0x0 c:/users/tazvi/downloads/avr8-gnu-toolchain-3.7.0.1796-win32.any.x86_64 (1)/avr8-gnu-toolchain-win32_x86_64/bin/../lib/gcc/avr/7.3.0/../../../../avr/lib/avr5\libm.a(mulsf3.o)
 .data          0x0000000000000000        0x0 c:/users/tazvi/downloads/avr8-gnu-toolchain-3.7.0.1796-win32.any.x86_64 (1)/avr8-gnu-toolchain-win32_x86_64/bin/../lib/gcc/avr/7.3.0/../../../../avr/lib/avr5\libm.a(mulsf3.o)
 .bss           0x0000000000000000        0x0 c:/users/tazvi/downloads/avr8-gnu-toolchain-3.7.0.1796-win32.any.x86_64 (1)/avr8-gnu-toolchain-win32_x86_64/bin/../lib/gcc/avr/7.3.0/../../../../avr/lib/avr5\libm.a(mulsf3.o)
 .text          0x0000000000000000        0x0 c:/users/tazvi/downloads/avr8-gnu-toolchain-3.7.0.1796-win32.any.x86_64 (1)/avr8-gnu-toolchain-win32_x86_64/bin/../lib/gcc/avr/7.3.0/../../../../avr/lib/avr5\libm.a(mulsf3x.o)
 .data          0x0000000000000000        0x0 c:/users/tazvi/downloads/avr8-gnu-toolchain-3.7.0.1796-win32.any.x86_64 (1)/avr8-gnu-toolchain-win32_x86_64/bin/../lib/gcc/avr/7.3.0/../../../../avr/lib/avr5\libm.a(mulsf3x.o)
 .bss           0x0000000000000000        0x0 c:/users/tazvi/downloads/avr8-gnu-toolchain-3.7.0.1796-win32.any.x86_64 (1)/avr8-gnu-toolchain-win32_x86_64/bin/../lib/gcc/avr/7.3.0/../../../../avr/lib/avr5\libm.a(mulsf3x.o)
 .text          0x0000000000000000        0x0 c:/users/tazvi/downloads/avr8-gnu-toolchain-3.7.0.1796-win32.any.x86_64 (1)/avr8-gnu-toolchain-win32_x86_64/bin/../lib/gcc/avr/7.3.0/../../../../avr/lib/avr5\libm.a(fp_inf.o)
 .data          0x0000000000000000        0x0 c:/users/tazvi/downloads/avr8-gnu-toolchain-3.7.0.1796-win32.any.x86_64 (1)/avr8-gnu-toolchain-win32_x86_64/bin/../lib/gcc/avr/7.3.0/../../../../avr/lib/avr5\libm.a(fp_inf.o)
 .bss           0x0000000000000000        0x0 c:/users/tazvi/downloads/avr8-gnu-toolchain-3.7.0.1796-win32.any.x86_64 (1)/avr8-gnu-toolchain-win32_x86_64/bin/../lib/gcc/avr/7.3.0/../../../../avr/lib/avr5\libm.a(fp_inf.o)
 .text          0x0000000000000000        0x0 c:/users/tazvi/downloads/avr8-gnu-toolchain-3.7.0.1796-win32.any.x86_64 (1)/avr8-gnu-toolchain-win32_x86_64/bin/../lib/gcc/avr/7.3.0/../../../../avr/lib/avr5\libm.a(fp_nan.o)
 .data          0x0000000000000000        0x0 c:/users/tazvi/downloads/avr8-gnu-toolchain-3.7.0.1796-win32.any.x86_64 (1)/avr8-gnu-toolchain-win32_x86_64/bin/../lib/gcc/avr/7.3.0/../../../../avr/lib/avr5\libm.a(fp_nan.o)
 .bss           0x0000000000000000        0x0 c:/users/tazvi/downloads/avr8-gnu-toolchain-3.7.0.1796-win32.any.x86_64 (1)/avr8-gnu-toolchain-win32_x86_64/bin/../lib/gcc/avr/7.3.0/../../../../avr/lib/avr5\libm.a(fp_nan.o)
 .text          0x0000000000000000        0x0 c:/users/tazvi/downloads/avr8-gnu-toolchain-3.7.0.1796-win32.any.x86_64 (1)/avr8-gnu-toolchain-win32_x86_64/bin/../lib/gcc/avr/7.3.0/../../../../avr/lib/avr5\libm.a(fp_pscA.o)
 .data          0x0000000000000000        0x0 c:/users/tazvi/downloads/avr8-gnu-toolchain-3.7.0.1796-win32.any.x86_64 (1)/avr8-gnu-toolchain-win32_x86_64/bin/../lib/gcc/avr/7.3.0/../../../../avr/lib/avr5\libm.a(fp_pscA.o)
 .bss           0x0000000000000000        0x0 c:/users/tazvi/downloads/avr8-gnu-toolchain-3.7.0.1796-win32.any.x86_64 (1)/avr8-gnu-toolchain-win32_x86_64/bin/../lib/gcc/avr/7.3.0/../../../../avr/lib/avr5\libm.a(fp_pscA.o)
 .text          0x0000000000000000        0x0 c:/users/tazvi/downloads/avr8-gnu-toolchain-3.7.0.1796-win32.any.x86_64 (1)/avr8-gnu-toolchain-win32_x86_64/bin/../lib/gcc/avr/7.3.0/../../../../avr/lib/avr5\libm.a(fp_pscB.o)
 .data          0x0000000000000000        0x0 c:/users/tazvi/downloads/avr8-gnu-toolchain-3.7.0.1796-win32.any.x86_64 (1)/avr8-gnu-toolchain-win32_x86_64/bin/../lib/gcc/avr/7.3.0/../../../../avr/lib/avr5\libm.a(fp_pscB.o)
 .bss           0x0000000000000000        0x0 c:/users/tazvi/downloads/avr8-gnu-toolchain-3.7.0.1796-win32.any.x86_64 (1)/avr8-gnu-toolchain-win32_x86_64/bin/../lib/gcc/avr/7.3.0/../../../../avr/lib/avr5\libm.a(fp_pscB.o)
 .text          0x0000000000000000        0x0 c:/users/tazvi/downloads/avr8-gnu-toolchain-3.7.0.1796-win32.any.x86_64 (1)/avr8-gnu-toolchain-win32_x86_64/bin/../lib/gcc/avr/7.3.0/../../../../avr/lib/avr5\libm.a(fp_round.o)
 .data          0x0000000000000000        0x0 c:/users/tazvi/downloads/avr8-gnu-toolchain-3.7.0.1796-win32.any.x86_64 (1)/avr8-gnu-toolchain-win32_x86_64/bin/../lib/gcc/avr/7.3.0/../../../../avr/lib/avr5\libm.a(fp_round.o)
 .bss           0x0000000000000000        0x0 c:/users/tazvi/downloads/avr8-gnu-toolchain-3.7.0.1796-win32.any.x86_64 (1)/avr8-gnu-toolchain-win32_x86_64/bin/../lib/gcc/avr/7.3.0/../../../../avr/lib/avr5\libm.a(fp_round.o)
 .text          0x0000000000000000        0x0 c:/users/tazvi/downloads/avr8-gnu-toolchain-3.7.0.1796-win32.any.x86_64 (1)/avr8-gnu-toolchain-win32_x86_64/bin/../lib/gcc/avr/7.3.0/../../../../avr/lib/avr5\libm.a(fp_split3.o)
 .data          0x0000000000000000        0x0 c:/users/tazvi/downloads/avr8-gnu-toolchain-3.7.0.1796-win32.any.x86_64 (1)/avr8-gnu-toolchain-win32_x86_64/bin/../lib/gcc/avr/7.3.0/../../../../avr/lib/avr5\libm.a(fp_split3.o)
 .bss           0x0000000000000000        0x0 c:/users/tazvi/downloads/avr8-gnu-toolchain-3.7.0.1796-win32.any.x86_64 (1)/avr8-gnu-toolchain-win32_x86_64/bin/../lib/gcc/avr/7.3.0/../../../../avr/lib/avr5\libm.a(fp_split3.o)
 .text          0x0000000000000000        0x0 c:/users/tazvi/downloads/avr8-gnu-toolchain-3.7.0.1796-win32.any.x86_64 (1)/avr8-gnu-toolchain-win32_x86_64/bin/../lib/gcc/avr/7.3.0/../../../../avr/lib/avr5\libm.a(fp_zero.o)
 .data          0x0000000000000000        0x0 c:/users/tazvi/downloads/avr8-gnu-toolchain-3.7.0.1796-win32.any.x86_64 (1)/avr8-gnu-toolchain-win32_x86_64/bin/../lib/gcc/avr/7.3.0/../../../../avr/lib/avr5\libm.a(fp_zero.o)
 .bss           0x0000000000000000        0x0 c:/users/tazvi/downloads/avr8-gnu-toolchain-3.7.0.1796-win32.any.x86_64 (1)/avr8-gnu-toolchain-win32_x86_64/bin/../lib/gcc/avr/7.3.0/../../../../avr/lib/avr5\libm.a(fp_zero.o)
 .text          0x0000000000000000        0x0 c:/users/tazvi/downloads/avr8-gnu-toolchain-3.7.0.1796-win32.any.x86_64 (1)/avr8-gnu-toolchain-win32_x86_64/bin/../lib/gcc/avr/7.3.0/avr5\libgcc.a(_exit.o)
 .data          0x0000000000000000        0x0 c:/users/tazvi/downloads/avr8-gnu-toolchain-3.7.0.1796-win32.any.x86_64 (1)/avr8-gnu-toolchain-win32_x86_64/bin/../lib/gcc/avr/7.3.0/avr5\libgcc.a(_exit.o)
 .bss           0x0000000000000000        0x0 c:/users/tazvi/downloads/avr8-gnu-toolchain-3.7.0.1796-win32.any.x86_64 (1)/avr8-gnu-toolchain-win32_x86_64/bin/../lib/gcc/avr/7.3.0/avr5\libgcc.a(_exit.o)
 .text.libgcc.mul
                0x0000000000000000        0x0 c:/users/tazvi/downloads/avr8-gnu-toolchain-3.7.0.1796-win32.any.x86_64 (1)/avr8-gnu-toolchain-win32_x86_64/bin/../lib/gcc/avr/7.3.0/avr5\libgcc.a(_exit.o)
 .text.libgcc.div
                0x0000000000000000        0x0 c:/users/tazvi/downloads/avr8-gnu-toolchain-3.7.0.1796-win32.any.x86_64 (1)/avr8-gnu-toolchain-win32_x86_64/bin/../lib/gcc/avr/7.3.0/avr5\libgcc.a(_exit.o)
 .text.libgcc   0x0000000000000000        0x0 c:/users/tazvi/downloads/avr8-gnu-toolchain-3.7.0.1796-win32.any.x86_64 (1)/avr8-gnu-toolchain-win32_x86_64/bin/../lib/gcc/avr/7.3.0/avr5\libgcc.a(_exit.o)
 .text.libgcc.prologue
                0x0000000000000000        0x0 c:/users/tazvi/downloads/avr8-gnu-toolchain-3.7.0.1796-win32.any.x86_64 (1)/avr8-gnu-toolchain-win32_x86_64/bin/../lib/gcc/avr/7.3.0/avr5\libgcc.a(_exit.o)
 .text.libgcc.builtins
                0x0000000000000000        0x0 c:/users/tazvi/downloads/avr8-gnu-toolchain-3.7.0.1796-win32.any.x86_64 (1)/avr8-gnu-toolchain-win32_x86_64/bin/../lib/gcc/avr/7.3.0/avr5\libgcc.a(_exit.o)
 .text.libgcc.fmul
                0x0000000000000000        0x0 c:/users/tazvi/downloads/avr8-gnu-toolchain-3.7.0.1796-win32.any.x86_64 (1)/avr8-gnu-toolchain-win32_x86_64/bin/../lib/gcc/avr/7.3.0/avr5\libgcc.a(_exit.o)
 .text.libgcc.fixed
                0x0000000000000000        0x0 c:/users/tazvi/downloads/avr8-gnu-toolchain-3.7.0.1796-win32.any.x86_64 (1)/avr8-gnu-toolchain-win32_x86_64/bin/../lib/gcc/avr/7.3.0/avr5\libgcc.a(_exit.o)
 .text          0x0000000000000000        0x0 c:/users/tazvi/downloads/avr8-gnu-toolchain-3.7.0.1796-win32.any.x86_64 (1)/avr8-gnu-toolchain-win32_x86_64/bin/../lib/gcc/avr/7.3.0/avr5\libgcc.a(_copy_data.o)
 .data          0x0000000000000000        0x0 c:/users/tazvi/downloads/avr8-gnu-toolchain-3.7.0.1796-win32.any.x86_64 (1)/avr8-gnu-toolchain-win32_x86_64/bin/../lib/gcc/avr/7.3.0/avr5\libgcc.a(_copy_data.o)
 .bss           0x0000000000000000        0x0 c:/users/tazvi/downloads/avr8-gnu-toolchain-3.7.0.1796-win32.any.x86_64 (1)/avr8-gnu-toolchain-win32_x86_64/bin/../lib/gcc/avr/7.3.0/avr5\libgcc.a(_copy_data.o)
 .text.libgcc.mul
                0x0000000000000000        0x0 c:/users/tazvi/downloads/avr8-gnu-toolchain-3.7.0.1796-win32.any.x86_64 (1)/avr8-gnu-toolchain-win32_x86_64/bin/../lib/gcc/avr/7.3.0/avr5\libgcc.a(_copy_data.o)
 .text.libgcc.div
                0x0000000000000000        0x0 c:/users/tazvi/downloads/avr8-gnu-toolchain-3.7.0.1796-win32.any.x86_64 (1)/avr8-gnu-toolchain-win32_x86_64/bin/../lib/gcc/avr/7.3.0/avr5\libgcc.a(_copy_data.o)
 .text.libgcc   0x0000000000000000        0x0 c:/users/tazvi/downloads/avr8-gnu-toolchain-3.7.0.1796-win32.any.x86_64 (1)/avr8-gnu-toolchain-win32_x86_64/bin/../lib/gcc/avr/7.3.0/avr5\libgcc.a(_copy_data.o)
 .text.libgcc.prologue
                0x0000000000000000        0x0 c:/users/tazvi/downloads/avr8-gnu-toolchain-3.7.0.1796-win32.any.x86_64 (1)/avr8-gnu-toolchain-win32_x86_64/bin/../lib/gcc/avr/7.3.0/avr5\libgcc.a(_copy_data.o)
 .text.libgcc.builtins
                0x0000000000000000        0x0 c:/users/tazvi/downloads/avr8-gnu-toolchain-3.7.0.1796-win32.any.x86_64 (1)/avr8-gnu-toolchain-win32_x86_64/bin/../lib/gcc/avr/7.3.0/avr5\libgcc.a(_copy_data.o)
 .text.libgcc.fmul
                0x0000000000000000        0x0 c:/users/tazvi/downloads/avr8-gnu-toolchain-3.7.0.1796-win32.any.x86_64 (1)/avr8-gnu-toolchain-win32_x86_64/bin/../lib/gcc/avr/7.3.0/avr5\libgcc.a(_copy_data.o)
 .text.libgcc.fixed
                0x0000000000000000        0x0 c:/users/tazvi/downloads/avr8-gnu-toolchain-3.7.0.1796-win32.any.x86_64 (1)/avr8-gnu-toolchain-win32_x86_64/bin/../lib/gcc/avr/7.3.0/avr5\libgcc.a(_copy_data.o)
 .text          0x0000000000000000        0x0 c:/users/tazvi/downloads/avr8-gnu-toolchain-3.7.0.1796-win32.any.x86_64 (1)/avr8-gnu-toolchain-win32_x86_64/bin/../lib/gcc/avr/7.3.0/avr5\libgcc.a(_clear_bss.o)
 .data          0x0000000000000000        0x0 c:/users/tazvi/downloads/avr8-gnu-toolchain-3.7.0.1796-win32.any.x86_64 (1)/avr8-gnu-toolchain-win32_x86_64/bin/../lib/gcc/avr/7.3.0/avr5\libgcc.a(_clear_bss.o)
 .bss           0x0000000000000000        0x0 c:/users/tazvi/downloads/avr8-gnu-toolchain-3.7.0.1796-win32.any.x86_64 (1)/avr8-gnu-toolchain-win32_x86_64/bin/../lib/gcc/avr/7.3.0/avr5\libgcc.a(_clear_bss.o)
 .text.libgcc.mul
                0x0000000000000000        0x0 c:/users/tazvi/downloads/avr8-gnu-toolchain-3.7.0.1796-win32.any.x86_64 (1)/avr8-gnu-toolchain-win32_x86_64/bin/../lib/gcc/avr/7.3.0/avr5\libgcc.a(_clear_bss.o)
 .text.libgcc.div
                0x0000000000000000        0x0 c:/users/tazvi/downloads/avr8-gnu-toolchain-3.7.0.1796-win32.any.x86_64 (1)/avr8-gnu-toolchain-win32_x86_64/bin/../lib/gcc/avr/7.3.0/avr5\libgcc.a(_clear_bss.o)
 .text.libgcc   0x0000000000000000        0x0 c:/users/tazvi/downloads/avr8-gnu-toolchain-3.7.0.1796-win32.any.x86_64 (1)/avr8-gnu-toolchain-win32_x86_64/bin/../lib/gcc/avr/7.3.0/avr5\libgcc.a(_clear_bss.o)
 .text.libgcc.prologue
                0x0000000000000000        0x0 c:/users/tazvi/downloads/avr8-gnu-toolchain-3.7.0.1796-win32.any.x86_64 (1)/avr8-gnu-toolchain-win32_x86_64/bin/../lib/gcc/avr/7.3.0/avr5\libgcc.a(_clear_bss.o)
 .text.libgcc.builtins
                0x0000000000000000        0x0 c:/users/tazvi/downloads/avr8-gnu-toolchain-3.7.0.1796-win32.any.x86_64 (1)/avr8-gnu-toolchain-win32_x86_64/bin/../lib/gcc/avr/7.3.0/avr5\libgcc.a(_clear_bss.o)
 .text.libgcc.fmul
                0x0000000000000000        0x0 c:/users/tazvi/downloads/avr8-gnu-toolchain-3.7.0.1796-win32.any.x86_64 (1)/avr8-gnu-toolchain-win32_x86_64/bin/../lib/gcc/avr/7.3.0/avr5\libgcc.a(_clear_bss.o)
 .text.libgcc.fixed
                0x0000000000000000        0x0 c:/users/tazvi/downloads/avr8-gnu-toolchain-3.7.0.1796-win32.any.x86_64 (1)/avr8-gnu-toolchain-win32_x86_64/bin/../lib/gcc/avr/7.3.0/avr5\libgcc.a(_clear_bss.o)
 .text          0x0000000000000000        0x0 c:/users/tazvi/downloads/avr8-gnu-toolchain-3.7.0.1796-win32.any.x86_64 (1)/avr8-gnu-toolchain-win32_x86_64/bin/../lib/gcc/avr/7.3.0/avr5\libgcc.a(_prologue.o)
 .data          0x0000000000000000        0x0 c:/users/tazvi/downloads/avr8-gnu-toolchain-3.7.0.1796-win32.any.x86_64 (1)/avr8-gnu-toolchain-win32_x86_64/bin/../lib/gcc/avr/7.3.0/avr5\libgcc.a(_prologue.o)
 .bss           0x0000000000000000        0x0 c:/users/tazvi/downloads/avr8-gnu-toolchain-3.7.0.1796-win32.any.x86_64 (1)/avr8-gnu-toolchain-win32_x86_64/bin/../lib/gcc/avr/7.3.0/avr5\libgcc.a(_prologue.o)
 .text.libgcc.mul
                0x0000000000000000        0x0 c:/users/tazvi/downloads/avr8-gnu-toolchain-3.7.0.1796-win32.any.x86_64 (1)/avr8-gnu-toolchain-win32_x86_64/bin/../lib/gcc/avr/7.3.0/avr5\libgcc.a(_prologue.o)
 .text.libgcc.div
                0x0000000000000000        0x0 c:/users/tazvi/downloads/avr8-gnu-toolchain-3.7.0.1796-win32.any.x86_64 (1)/avr8-gnu-toolchain-win32_x86_64/bin/../lib/gcc/avr/7.3.0/avr5\libgcc.a(_prologue.o)
 .text.libgcc   0x0000000000000000        0x0 c:/users/tazvi/downloads/avr8-gnu-toolchain-3.7.0.1796-win32.any.x86_64 (1)/avr8-gnu-toolchain-win32_x86_64/bin/../lib/gcc/avr/7.3.0/avr5\libgcc.a(_prologue.o)
 .text.libgcc.builtins
                0x0000000000000000        0x0 c:/users/tazvi/downloads/avr8-gnu-toolchain-3.7.0.1796-win32.any.x86_64 (1)/avr8-gnu-toolchain-win32_x86_64/bin/../lib/gcc/avr/7.3.0/avr5\libgcc.a(_prologue.o)
 .text.libgcc.fmul
                0x0000000000000000        0x0 c:/users/tazvi/downloads/avr8-gnu-toolchain-3.7.0.1796-win32.any.x86_64 (1)/avr8-gnu-toolchain-win32_x86_64/bin/../lib/gcc/avr/7.3.0/avr5\libgcc.a(_prologue.o)
 .text.libgcc.fixed
                0x0000000000000000        0x0 c:/users/tazvi/downloads/avr8-gnu-toolchain-3.7.0.1796-win32.any.x86_64 (1)/avr8-gnu-toolchain-win32_x86_64/bin/../lib/gcc/avr/7.3.0/avr5\libgcc.a(_prologue.o)
 .text          0x0000000000000000        0x0 c:/users/tazvi/downloads/avr8-gnu-toolchain-3.7.0.1796-win32.any.x86_64 (1)/avr8-gnu-toolchain-win32_x86_64/bin/../lib/gcc/avr/7.3.0/avr5\libgcc.a(_epilogue.o)
 .data          0x0000000000000000        0x0 c:/users/tazvi/downloads/avr8-gnu-toolchain-3.7.0.1796-win32.any.x86_64 (1)/avr8-gnu-toolchain-win32_x86_64/bin/../lib/gcc/avr/7.3.0/avr5\libgcc.a(_epilogue.o)
 .bss           0x0000000000000000        0x0 c:/users/tazvi/downloads/avr8-gnu-toolchain-3.7.0.1796-win32.any.x86_64 (1)/avr8-gnu-toolchain-win32_x86_64/bin/../lib/gcc/avr/7.3.0/avr5\libgcc.a(_epilogue.o)
 .text.libgcc.mul
                0x0000000000000000        0x0 c:/users/tazvi/downloads/avr8-gnu-toolchain-3.7.0.1796-win32.any.x86_64 (1)/avr8-gnu-toolchain-win32_x86_64/bin/../lib/gcc/avr/7.3.0/avr5\libgcc.a(_epilogue.o)
 .text.libgcc.div
                0x0000000000000000        0x0 c:/users/tazvi/downloads/avr8-gnu-toolchain-3.7.0.1796-win32.any.x86_64 (1)/avr8-gnu-toolchain-win32_x86_64/bin/../lib/gcc/avr/7.3.0/avr5\libgcc.a(_epilogue.o)
 .text.libgcc   0x0000000000000000        0x0 c:/users/tazvi/downloads/avr8-gnu-toolchain-3.7.0.1796-win32.any.x86_64 (1)/avr8-gnu-toolchain-win32_x86_64/bin/../lib/gcc/avr/7.3.0/avr5\libgcc.a(_epilogue.o)
 .text.libgcc.builtins
                0x0000000000000000        0x0 c:/users/tazvi/downloads/avr8-gnu-toolchain-3.7.0.1796-win32.any.x86_64 (1)/avr8-gnu-toolchain-win32_x86_64/bin/../lib/gcc/avr/7.3.0/avr5\libgcc.a(_epilogue.o)
 .text.libgcc.fmul
                0x0000000000000000        0x0 c:/users/tazvi/downloads/avr8-gnu-toolchain-3.7.0.1796-win32.any.x86_64 (1)/avr8-gnu-toolchain-win32_x86_64/bin/../lib/gcc/avr/7.3.0/avr5\libgcc.a(_epilogue.o)
 .text.libgcc.fixed
                0x0000000000000000        0x0 c:/users/tazvi/downloads/avr8-gnu-toolchain-3.7.0.1796-win32.any.x86_64 (1)/avr8-gnu-toolchain-win32_x86_64/bin/../lib/gcc/avr/7.3.0/avr5\libgcc.a(_epilogue.o)
 .text          0x0000000000000000        0x0 c:/users/tazvi/downloads/avr8-gnu-toolchain-3.7.0.1796-win32.any.x86_64 (1)/avr8-gnu-toolchain-win32_x86_64/bin/../lib/gcc/avr/7.3.0/../../../../avr/lib/avr5\libc.a(ftoa_engine.o)
 .data          0x0000000000000000        0x0 c:/users/tazvi/downloads/avr8-gnu-toolchain-3.7.0.1796-win32.any.x86_64 (1)/avr8-gnu-toolchain-win32_x86_64/bin/../lib/gcc/avr/7.3.0/../../../../avr/lib/avr5\libc.a(ftoa_engine.o)
 .bss           0x0000000000000000        0x0 c:/users/tazvi/downloads/avr8-gnu-toolchain-3.7.0.1796-win32.any.x86_64 (1)/avr8-gnu-toolchain-win32_x86_64/bin/../lib/gcc/avr/7.3.0/../../../../avr/lib/avr5\libc.a(ftoa_engine.o)
 .text          0x0000000000000000        0x0 c:/users/tazvi/downloads/avr8-gnu-toolchain-3.7.0.1796-win32.any.x86_64 (1)/avr8-gnu-toolchain-win32_x86_64/bin/../lib/gcc/avr/7.3.0/../../../../avr/lib/avr5\libc.a(strnlen_P.o)
 .data          0x0000000000000000        0x0 c:/users/tazvi/downloads/avr8-gnu-toolchain-3.7.0.1796-win32.any.x86_64 (1)/avr8-gnu-toolchain-win32_x86_64/bin/../lib/gcc/avr/7.3.0/../../../../avr/lib/avr5\libc.a(strnlen_P.o)
 .bss           0x0000000000000000        0x0 c:/users/tazvi/downloads/avr8-gnu-toolchain-3.7.0.1796-win32.any.x86_64 (1)/avr8-gnu-toolchain-win32_x86_64/bin/../lib/gcc/avr/7.3.0/../../../../avr/lib/avr5\libc.a(strnlen_P.o)
 .text          0x0000000000000000        0x0 c:/users/tazvi/downloads/avr8-gnu-toolchain-3.7.0.1796-win32.any.x86_64 (1)/avr8-gnu-toolchain-win32_x86_64/bin/../lib/gcc/avr/7.3.0/../../../../avr/lib/avr5\libc.a(strnlen.o)
 .data          0x0000000000000000        0x0 c:/users/tazvi/downloads/avr8-gnu-toolchain-3.7.0.1796-win32.any.x86_64 (1)/avr8-gnu-toolchain-win32_x86_64/bin/../lib/gcc/avr/7.3.0/../../../../avr/lib/avr5\libc.a(strnlen.o)
 .bss           0x0000000000000000        0x0 c:/users/tazvi/downloads/avr8-gnu-toolchain-3.7.0.1796-win32.any.x86_64 (1)/avr8-gnu-toolchain-win32_x86_64/bin/../lib/gcc/avr/7.3.0/../../../../avr/lib/avr5\libc.a(strnlen.o)
 .text          0x0000000000000000        0x0 c:/users/tazvi/downloads/avr8-gnu-toolchain-3.7.0.1796-win32.any.x86_64 (1)/avr8-gnu-toolchain-win32_x86_64/bin/../lib/gcc/avr/7.3.0/../../../../avr/lib/avr5\libc.a(fprintf.o)
 .data          0x0000000000000000        0x0 c:/users/tazvi/downloads/avr8-gnu-toolchain-3.7.0.1796-win32.any.x86_64 (1)/avr8-gnu-toolchain-win32_x86_64/bin/../lib/gcc/avr/7.3.0/../../../../avr/lib/avr5\libc.a(fprintf.o)
 .bss           0x0000000000000000        0x0 c:/users/tazvi/downloads/avr8-gnu-toolchain-3.7.0.1796-win32.any.x86_64 (1)/avr8-gnu-toolchain-win32_x86_64/bin/../lib/gcc/avr/7.3.0/../../../../avr/lib/avr5\libc.a(fprintf.o)
 .text          0x0000000000000000        0x0 c:/users/tazvi/downloads/avr8-gnu-toolchain-3.7.0.1796-win32.any.x86_64 (1)/avr8-gnu-toolchain-win32_x86_64/bin/../lib/gcc/avr/7.3.0/../../../../avr/lib/avr5\libc.a(fputc.o)
 .data          0x0000000000000000        0x0 c:/users/tazvi/downloads/avr8-gnu-toolchain-3.7.0.1796-win32.any.x86_64 (1)/avr8-gnu-toolchain-win32_x86_64/bin/../lib/gcc/avr/7.3.0/../../../../avr/lib/avr5\libc.a(fputc.o)
 .bss           0x0000000000000000        0x0 c:/users/tazvi/downloads/avr8-gnu-toolchain-3.7.0.1796-win32.any.x86_64 (1)/avr8-gnu-toolchain-win32_x86_64/bin/../lib/gcc/avr/7.3.0/../../../../avr/lib/avr5\libc.a(fputc.o)
 .text          0x0000000000000000        0x0 c:/users/tazvi/downloads/avr8-gnu-toolchain-3.7.0.1796-win32.any.x86_64 (1)/avr8-gnu-toolchain-win32_x86_64/bin/../lib/gcc/avr/7.3.0/../../../../avr/lib/avr5\libc.a(ultoa_invert.o)
 .data          0x0000000000000000        0x0 c:/users/tazvi/downloads/avr8-gnu-toolchain-3.7.0.1796-win32.any.x86_64 (1)/avr8-gnu-toolchain-win32_x86_64/bin/../lib/gcc/avr/7.3.0/../../../../avr/lib/avr5\libc.a(ultoa_invert.o)
 .bss           0x0000000000000000        0x0 c:/users/tazvi/downloads/avr8-gnu-toolchain-3.7.0.1796-win32.any.x86_64 (1)/avr8-gnu-toolchain-win32_x86_64/bin/../lib/gcc/avr/7.3.0/../../../../avr/lib/avr5\libc.a(ultoa_invert.o)

Memory Configuration

Name             Origin             Length             Attributes
text             0x0000000000000000 0x0000000000008000 xr
data             0x0000000000800100 0x0000000000000800 rw !x
eeprom           0x0000000000810000 0x0000000000000400 rw !x
fuse             0x0000000000820000 0x0000000000000003 rw !x
lock             0x0000000000830000 0x0000000000000400 rw !x
signature        0x0000000000840000 0x0000000000000400 rw !x
user_signatures  0x0000000000850000 0x0000000000000400 rw !x
*default*        0x0000000000000000 0xffffffffffffffff

Linker script and memory map

Address of section .data set to 0x800100
LOAD C:/Users/tazvi/.mchp_packs/Microchip/ATmega_DFP/3.2.269/gcc/dev/atmega328p/avr5/crtatmega328p.o
LOAD c:/users/tazvi/downloads/avr8-gnu-toolchain-3.7.0.1796-win32.any.x86_64 (1)/avr8-gnu-toolchain-win32_x86_64/bin/../lib/gcc/avr/7.3.0/../../../../avr/lib/avr5\libprintf_flt.a
LOAD c:/users/tazvi/downloads/avr8-gnu-toolchain-3.7.0.1796-win32.any.x86_64 (1)/avr8-gnu-toolchain-win32_x86_64/bin/../lib/gcc/avr/7.3.0/../../../../avr/lib/avr5\libm.a
LOAD build/default/debug/Button_Mode.o
LOAD build/default/debug/lcd.o
LOAD build/default/debug/hd44780.o
                0x0000000000000001                __MPLAB_BUILD = 0x1
                0x0000000000000001                __ICD2RAM = 0x1
                0x0000000000000001                __MPLAB_DEBUG = 0x1
                0x0000000000000001                __DEBUG = 0x1
START GROUP
LOAD c:/users/tazvi/downloads/avr8-gnu-toolchain-3.7.0.1796-win32.any.x86_64 (1)/avr8-gnu-toolchain-win32_x86_64/bin/../lib/gcc/avr/7.3.0/../../../../avr/lib/avr5\libm.a
END GROUP
START GROUP
LOAD c:/users/tazvi/downloads/avr8-gnu-toolchain-3.7.0.1796-win32.any.x86_64 (1)/avr8-gnu-toolchain-win32_x86_64/bin/../lib/gcc/avr/7.3.0/avr5\libgcc.a
LOAD c:/users/tazvi/downloads/avr8-gnu-toolchain-3.7.0.1796-win32.any.x86_64 (1)/avr8-gnu-toolchain-win32_x86_64/bin/../lib/gcc/avr/7.3.0/../../../../avr/lib/avr5\libm.a
LOAD c:/users/tazvi/downloads/avr8-gnu-toolchain-3.7.0.1796-win32.any.x86_64 (1)/avr8-gnu-toolchain-win32_x86_64/bin/../lib/gcc/avr/7.3.0/../../../../avr/lib/avr5\libc.a
LOAD C:/Users/tazvi/.mchp_packs/Microchip/ATmega_DFP/3.2.269/gcc/dev/atmega328p/avr5\libatmega328p.a
END GROUP
                0x0000000000000000                __TEXT_REGION_ORIGIN__ = DEFINED (__TEXT_REGION_ORIGIN__)?__TEXT_REGION_ORIGIN__:0x0
                [0x0000000000800100]                __DATA_REGION_ORIGIN__ = DEFINED (__DATA_REGION_ORIGIN__)?__DATA_REGION_ORIGIN__:0x800060
                [0x0000000000008000]                __TEXT_REGION_LENGTH__ = DEFINED (__TEXT_REGION_LENGTH__)?__TEXT_REGION_LENGTH__:0x20000
                [0x0000000000000800]                __DATA_REGION_LENGTH__ = DEFINED (__DATA_REGION_LENGTH__)?__DATA_REGION_LENGTH__:0xffa0
                [0x0000000000000400]                __EEPROM_REGION_LENGTH__ = DEFINED (__EEPROM_REGION_LENGTH__)?__EEPROM_REGION_LENGTH__:0x10000
                [0x0000000000000003]                __FUSE_REGION_LENGTH__ = DEFINED (__FUSE_REGION_LENGTH__)?__FUSE_REGION_LENGTH__:0x400
                0x0000000000000400                __LOCK_REGION_LENGTH__ = DEFINED (__LOCK_REGION_LENGTH__)?__LOCK_REGION_LENGTH__:0x400
                0x0000000000000400                __SIGNATURE_REGION_LENGTH__ = DEFINED (__SIGNATURE_REGION_LENGTH__)?__SIGNATURE_REGION_LENGTH__:0x400
                0x0000000000000400                __USER_SIGNATURE_REGION_LENGTH__ = DEFINED (__USER_SIGNATURE_REGION_LENGTH__)?__USER_SIGNATURE_REGION_LENGTH__:0x400

.hash
 *(.hash)

.dynsym
 *(.dynsym)

.dynstr
 *(.dynstr)

.gnu.version
 *(.gnu.version)

.gnu.version_d
 *(.gnu.version_d)

.gnu.version_r
 *(.gnu.version_r)

.rel.init
 *(.rel.init)

.rela.init
 *(.rela.init)

.rel.text
 *(.rel.text)
 *(.rel.text.*)
 *(.rel.gnu.linkonce.t*)

.rela.text
 *(.rela.text)
 *(.rela.text.*)
 *(.rela.gnu.linkonce.t*)

.rel.fini
 *(.rel.fini)

.rela.fini
 *(.rela.fini)

.rel.rodata
 *(.rel.rodata)
 *(.rel.rodata.*)
 *(.rel.gnu.linkonce.r*)

.rela.rodata
 *(.rela.rodata)
 *(.rela.rodata.*)
 *(.rela.gnu.linkonce.r*)

.rel.data
 *(.rel.data)
 *(.rel.data.*)
 *(.rel.gnu.linkonce.d*)

.rela.data
 *(.rela.data)
 *(.rela.data.*)
 *(.rela.gnu.linkonce.d*)

.rel.ctors
 *(.rel.ctors)

.rela.ctors
 *(.rela.ctors)

.rel.dtors
 *(.rel.dtors)

.rela.dtors
 *(.rela.dtors)

.rel.got
 *(.rel.got)

.rela.got
 *(.rela.got)

.rel.bss
 *(.rel.bss)

.rela.bss
 *(.rela.bss)

.rel.plt
 *(.rel.plt)

.rela.plt
 *(.rela.plt)

.text           0x0000000000000000     0x1054
 *(.vectors)
 .vectors       0x0000000000000000       0x68 C:/Users/tazvi/.mchp_packs/Microchip/ATmega_DFP/3.2.269/gcc/dev/atmega328p/avr5/crtatmega328p.o
                0x0000000000000000                __vector_default
                0x0000000000000000                __vectors
 *(.vectors)
 *(.progmem.gcc*)
                0x0000000000000068                . = ALIGN (0x2)
                0x0000000000000068                __trampolines_start = .
 *(.trampolines)
 .trampolines   0x0000000000000068        0x0 linker stubs
 *(.trampolines*)
                0x0000000000000068                __trampolines_end = .
 *libprintf_flt.a:*(.progmem.data)
 .progmem.data  0x0000000000000068        0x8 c:/users/tazvi/downloads/avr8-gnu-toolchain-3.7.0.1796-win32.any.x86_64 (1)/avr8-gnu-toolchain-win32_x86_64/bin/../lib/gcc/avr/7.3.0/../../../../avr/lib/avr5\libprintf_flt.a(vfprintf_flt.o)
 *libc.a:*(.progmem.data)
 .progmem.data  0x0000000000000070       0xfa c:/users/tazvi/downloads/avr8-gnu-toolchain-3.7.0.1796-win32.any.x86_64 (1)/avr8-gnu-toolchain-win32_x86_64/bin/../lib/gcc/avr/7.3.0/../../../../avr/lib/avr5\libc.a(ftoa_engine.o)
 *(.progmem*)
                0x000000000000016a                . = ALIGN (0x2)
 *(.jumptables)
 *(.jumptables*)
 *(.lowtext)
 *(.lowtext*)
                0x000000000000016a                __ctors_start = .
 *(.ctors)
                0x000000000000016a                __ctors_end = .
                0x000000000000016a                __dtors_start = .
 *(.dtors)
                0x000000000000016a                __dtors_end = .
 SORT(*)(.ctors)
 SORT(*)(.dtors)
 *(.init0)
 .init0         0x000000000000016a        0x0 C:/Users/tazvi/.mchp_packs/Microchip/ATmega_DFP/3.2.269/gcc/dev/atmega328p/avr5/crtatmega328p.o
                0x000000000000016a                __init
 *(.init0)
 *(.init1)
 *(.init1)
 *(.init2)
 .init2         0x000000000000016a        0xc C:/Users/tazvi/.mchp_packs/Microchip/ATmega_DFP/3.2.269/gcc/dev/atmega328p/avr5/crtatmega328p.o
 *(.init2)
 *(.init3)
 *(.init3)
 *(.init4)
 .init4         0x0000000000000176       0x16 c:/users/tazvi/downloads/avr8-gnu-toolchain-3.7.0.1796-win32.any.x86_64 (1)/avr8-gnu-toolchain-win32_x86_64/bin/../lib/gcc/avr/7.3.0/avr5\libgcc.a(_copy_data.o)
                0x0000000000000176                __do_copy_data
 .init4         0x000000000000018c       0x10 c:/users/tazvi/downloads/avr8-gnu-toolchain-3.7.0.1796-win32.any.x86_64 (1)/avr8-gnu-toolchain-win32_x86_64/bin/../lib/gcc/avr/7.3.0/avr5\libgcc.a(_clear_bss.o)
                0x000000000000018c                __do_clear_bss
 *(.init4)
 *(.init5)
 *(.init5)
 *(.init6)
 *(.init6)
 *(.init7)
 *(.init7)
 *(.init8)
 *(.init8)
 *(.init9)
 .init9         0x000000000000019c        0x8 C:/Users/tazvi/.mchp_packs/Microchip/ATmega_DFP/3.2.269/gcc/dev/atmega328p/avr5/crtatmega328p.o
 *(.init9)
 *(.text)
 .text          0x00000000000001a4        0x4 C:/Users/tazvi/.mchp_packs/Microchip/ATmega_DFP/3.2.269/gcc/dev/atmega328p/avr5/crtatmega328p.o
                0x00000000000001a4                __vector_22
                0x00000000000001a4                __vector_1
                0x00000000000001a4                __vector_24
                0x00000000000001a4                __vector_12
                0x00000000000001a4                __bad_interrupt
                0x00000000000001a4                __vector_6
                0x00000000000001a4                __vector_3
                0x00000000000001a4                __vector_23
                0x00000000000001a4                __vector_25
                0x00000000000001a4                __vector_11
                0x00000000000001a4                __vector_13
                0x00000000000001a4                __vector_17
                0x00000000000001a4                __vector_19
                0x00000000000001a4                __vector_7
                0x00000000000001a4                __vector_5
                0x00000000000001a4                __vector_4
                0x00000000000001a4                __vector_9
                0x00000000000001a4                __vector_2
                0x00000000000001a4                __vector_21
                0x00000000000001a4                __vector_15
                0x00000000000001a4                __vector_8
                0x00000000000001a4                __vector_14
                0x00000000000001a4                __vector_10
                0x00000000000001a4                __vector_16
                0x00000000000001a4                __vector_18
                0x00000000000001a4                __vector_20
                0x00000000000001a8                . = ALIGN (0x2)
 *(.text.*)
 .text.avr-libc
                0x00000000000001a8      0x6c2 c:/users/tazvi/downloads/avr8-gnu-toolchain-3.7.0.1796-win32.any.x86_64 (1)/avr8-gnu-toolchain-win32_x86_64/bin/../lib/gcc/avr/7.3.0/../../../../avr/lib/avr5\libprintf_flt.a(vfprintf_flt.o)
                0x00000000000001a8                vfprintf
 .text.measuring
                0x000000000000086a       0x56 build/default/debug/Button_Mode.o
                0x000000000000086a                measuring
 .text.main     0x00000000000008c0       0x7e build/default/debug/Button_Mode.o
                0x00000000000008c0                main
 .text.lcd_init
                0x000000000000093e       0x30 build/default/debug/lcd.o
                0x000000000000093e                lcd_init
 .text.lcd_putchar
                0x000000000000096e       0x4e build/default/debug/lcd.o
                0x000000000000096e                lcd_putchar
 .text.hd44780_outnibble
                0x00000000000009bc       0x22 build/default/debug/hd44780.o
 .text.hd44780_innibble
                0x00000000000009de       0x2c build/default/debug/hd44780.o
 .text.hd44780_outbyte
                0x0000000000000a0a       0x20 build/default/debug/hd44780.o
                0x0000000000000a0a                hd44780_outbyte
 .text.hd44780_inbyte
                0x0000000000000a2a       0x1e build/default/debug/hd44780.o
                0x0000000000000a2a                hd44780_inbyte
 .text.hd44780_wait_ready
                0x0000000000000a48        0xc build/default/debug/hd44780.o
                0x0000000000000a48                hd44780_wait_ready
 .text.hd44780_init
                0x0000000000000a54       0x7c build/default/debug/hd44780.o
                0x0000000000000a54                hd44780_init
 .text.avr-libc.fplib
                0x0000000000000ad0       0x7a c:/users/tazvi/downloads/avr8-gnu-toolchain-3.7.0.1796-win32.any.x86_64 (1)/avr8-gnu-toolchain-win32_x86_64/bin/../lib/gcc/avr/7.3.0/../../../../avr/lib/avr5\libm.a(floatsisf.o)
                0x0000000000000ad0                __floatunsisf
                0x0000000000000ad4                __floatsisf
 .text.avr-libc.fplib
                0x0000000000000b4a        0x8 c:/users/tazvi/downloads/avr8-gnu-toolchain-3.7.0.1796-win32.any.x86_64 (1)/avr8-gnu-toolchain-win32_x86_64/bin/../lib/gcc/avr/7.3.0/../../../../avr/lib/avr5\libm.a(mulsf3.o)
                0x0000000000000b4a                __mulsf3
 .text.avr-libc.fplib
                0x0000000000000b52       0xd2 c:/users/tazvi/downloads/avr8-gnu-toolchain-3.7.0.1796-win32.any.x86_64 (1)/avr8-gnu-toolchain-win32_x86_64/bin/../lib/gcc/avr/7.3.0/../../../../avr/lib/avr5\libm.a(mulsf3x.o)
                0x0000000000000b70                __mulsf3x
                0x0000000000000b76                __mulsf3_pse
 .text.avr-libc.fplib
                0x0000000000000c24        0xc c:/users/tazvi/downloads/avr8-gnu-toolchain-3.7.0.1796-win32.any.x86_64 (1)/avr8-gnu-toolchain-win32_x86_64/bin/../lib/gcc/avr/7.3.0/../../../../avr/lib/avr5\libm.a(fp_inf.o)
                0x0000000000000c24                __fp_inf
 .text.avr-libc.fplib
                0x0000000000000c30        0x6 c:/users/tazvi/downloads/avr8-gnu-toolchain-3.7.0.1796-win32.any.x86_64 (1)/avr8-gnu-toolchain-win32_x86_64/bin/../lib/gcc/avr/7.3.0/../../../../avr/lib/avr5\libm.a(fp_nan.o)
                0x0000000000000c30                __fp_nan
 .text.avr-libc.fplib
                0x0000000000000c36        0xe c:/users/tazvi/downloads/avr8-gnu-toolchain-3.7.0.1796-win32.any.x86_64 (1)/avr8-gnu-toolchain-win32_x86_64/bin/../lib/gcc/avr/7.3.0/../../../../avr/lib/avr5\libm.a(fp_pscA.o)
                0x0000000000000c36                __fp_pscA
 .text.avr-libc.fplib
                0x0000000000000c44        0xe c:/users/tazvi/downloads/avr8-gnu-toolchain-3.7.0.1796-win32.any.x86_64 (1)/avr8-gnu-toolchain-win32_x86_64/bin/../lib/gcc/avr/7.3.0/../../../../avr/lib/avr5\libm.a(fp_pscB.o)
                0x0000000000000c44                __fp_pscB
 .text.avr-libc.fplib
                0x0000000000000c52       0x22 c:/users/tazvi/downloads/avr8-gnu-toolchain-3.7.0.1796-win32.any.x86_64 (1)/avr8-gnu-toolchain-win32_x86_64/bin/../lib/gcc/avr/7.3.0/../../../../avr/lib/avr5\libm.a(fp_round.o)
                0x0000000000000c52                __fp_round
 .text.avr-libc.fplib
                0x0000000000000c74       0x44 c:/users/tazvi/downloads/avr8-gnu-toolchain-3.7.0.1796-win32.any.x86_64 (1)/avr8-gnu-toolchain-win32_x86_64/bin/../lib/gcc/avr/7.3.0/../../../../avr/lib/avr5\libm.a(fp_split3.o)
                0x0000000000000c74                __fp_split3
                0x0000000000000c84                __fp_splitA
 .text.avr-libc.fplib
                0x0000000000000cb8        0xe c:/users/tazvi/downloads/avr8-gnu-toolchain-3.7.0.1796-win32.any.x86_64 (1)/avr8-gnu-toolchain-win32_x86_64/bin/../lib/gcc/avr/7.3.0/../../../../avr/lib/avr5\libm.a(fp_zero.o)
                0x0000000000000cb8                __fp_zero
                0x0000000000000cba                __fp_szero
 .text.libgcc.prologue
                0x0000000000000cc6       0x38 c:/users/tazvi/downloads/avr8-gnu-toolchain-3.7.0.1796-win32.any.x86_64 (1)/avr8-gnu-toolchain-win32_x86_64/bin/../lib/gcc/avr/7.3.0/avr5\libgcc.a(_prologue.o)
                0x0000000000000cc6                __prologue_saves__
 .text.libgcc.prologue
                0x0000000000000cfe       0x36 c:/users/tazvi/downloads/avr8-gnu-toolchain-3.7.0.1796-win32.any.x86_64 (1)/avr8-gnu-toolchain-win32_x86_64/bin/../lib/gcc/avr/7.3.0/avr5\libgcc.a(_epilogue.o)
                0x0000000000000cfe                __epilogue_restores__
 .text.avr-libc
                0x0000000000000d34      0x1b0 c:/users/tazvi/downloads/avr8-gnu-toolchain-3.7.0.1796-win32.any.x86_64 (1)/avr8-gnu-toolchain-win32_x86_64/bin/../lib/gcc/avr/7.3.0/../../../../avr/lib/avr5\libc.a(ftoa_engine.o)
                0x0000000000000d34                __ftoa_engine
 .text.avr-libc
                0x0000000000000ee4       0x16 c:/users/tazvi/downloads/avr8-gnu-toolchain-3.7.0.1796-win32.any.x86_64 (1)/avr8-gnu-toolchain-win32_x86_64/bin/../lib/gcc/avr/7.3.0/../../../../avr/lib/avr5\libc.a(strnlen_P.o)
                0x0000000000000ee4                strnlen_P
 .text.avr-libc
                0x0000000000000efa       0x16 c:/users/tazvi/downloads/avr8-gnu-toolchain-3.7.0.1796-win32.any.x86_64 (1)/avr8-gnu-toolchain-win32_x86_64/bin/../lib/gcc/avr/7.3.0/../../../../avr/lib/avr5\libc.a(strnlen.o)
                0x0000000000000efa                strnlen
 .text.avr-libc
                0x0000000000000f10       0x24 c:/users/tazvi/downloads/avr8-gnu-toolchain-3.7.0.1796-win32.any.x86_64 (1)/avr8-gnu-toolchain-win32_x86_64/bin/../lib/gcc/avr/7.3.0/../../../../avr/lib/avr5\libc.a(fprintf.o)
                0x0000000000000f10                fprintf
 .text.avr-libc
                0x0000000000000f34       0x60 c:/users/tazvi/downloads/avr8-gnu-toolchain-3.7.0.1796-win32.any.x86_64 (1)/avr8-gnu-toolchain-win32_x86_64/bin/../lib/gcc/avr/7.3.0/../../../../avr/lib/avr5\libc.a(fputc.o)
                0x0000000000000f34                fputc
 .text.avr-libc
                0x0000000000000f94       0xbc c:/users/tazvi/downloads/avr8-gnu-toolchain-3.7.0.1796-win32.any.x86_64 (1)/avr8-gnu-toolchain-win32_x86_64/bin/../lib/gcc/avr/7.3.0/../../../../avr/lib/avr5\libc.a(ultoa_invert.o)
                0x0000000000000f94                __ultoa_invert
                0x0000000000001050                . = ALIGN (0x2)
 *(.fini9)
 .fini9         0x0000000000001050        0x0 c:/users/tazvi/downloads/avr8-gnu-toolchain-3.7.0.1796-win32.any.x86_64 (1)/avr8-gnu-toolchain-win32_x86_64/bin/../lib/gcc/avr/7.3.0/avr5\libgcc.a(_exit.o)
                0x0000000000001050                _exit
                0x0000000000001050                exit
 *(.fini9)
 *(.fini8)
 *(.fini8)
 *(.fini7)
 *(.fini7)
 *(.fini6)
 *(.fini6)
 *(.fini5)
 *(.fini5)
 *(.fini4)
 *(.fini4)
 *(.fini3)
 *(.fini3)
 *(.fini2)
 *(.fini2)
 *(.fini1)
 *(.fini1)
 *(.fini0)
 .fini0         0x0000000000001050        0x4 c:/users/tazvi/downloads/avr8-gnu-toolchain-3.7.0.1796-win32.any.x86_64 (1)/avr8-gnu-toolchain-win32_x86_64/bin/../lib/gcc/avr/7.3.0/avr5\libgcc.a(_exit.o)
 *(.fini0)
                0x0000000000001054                _etext = .

.data           0x0000000000800100       0x16 load address 0x0000000000001054
                0x0000000000800100                PROVIDE (__data_start, .)
 *(.data)
 *(.data*)
 .data.lcd_str  0x0000000000800100        0xe build/default/debug/Button_Mode.o
                0x0000000000800100                lcd_str
 *(.gnu.linkonce.d*)
 *(.rodata)
 *(.rodata*)
 .rodata.main.str1.1
                0x000000000080010e        0x8 build/default/debug/Button_Mode.o
 *(.gnu.linkonce.r*)
                0x0000000000800116                . = ALIGN (0x2)
                0x0000000000800116                _edata = .
                0x0000000000800116                PROVIDE (__data_end, .)

.bss            0x0000000000800116        0x1
                0x0000000000800116                PROVIDE (__bss_start, .)
 *(.bss)
 *(.bss*)
 .bss.esc_seen.1850
                0x0000000000800116        0x1 build/default/debug/lcd.o
 *(COMMON)
                0x0000000000800117                PROVIDE (__bss_end, .)
                0x0000000000001054                __data_load_start = LOADADDR (.data)
                0x000000000000106a                __data_load_end = (__data_load_start + SIZEOF (.data))

.noinit         0x0000000000800117        0x0
                [!provide]                        PROVIDE (__noinit_start, .)
 *(.noinit*)
                [!provide]                        PROVIDE (__noinit_end, .)
                0x0000000000800117                _end = .
                [!provide]                        PROVIDE (__heap_start, .)

.eeprom         0x0000000000810000        0x0
 *(.eeprom*)
                0x0000000000810000                __eeprom_end = .

.fuse
 *(.fuse)
 *(.lfuse)
 *(.hfuse)
 *(.efuse)

.lock
 *(.lock*)

.signature
 *(.signature*)

.user_signatures
 *(.user_signatures*)

.stab
 *(.stab)

.stabstr
 *(.stabstr)

.stab.excl
 *(.stab.excl)

.stab.exclstr
 *(.stab.exclstr)

.stab.index
 *(.stab.index)

.stab.indexstr
 *(.stab.indexstr)

.comment        0x0000000000000000       0x5c
 *(.comment)
 .comment       0x0000000000000000       0x2c c:/users/tazvi/downloads/avr8-gnu-toolchain-3.7.0.1796-win32.any.x86_64 (1)/avr8-gnu-toolchain-win32_x86_64/bin/../lib/gcc/avr/7.3.0/../../../../avr/lib/avr5\libprintf_flt.a(vfprintf_flt.o)
                                         0x2d (size before relaxing)
 .comment       0x000000000000002c       0x30 build/default/debug/Button_Mode.o
                                         0x31 (size before relaxing)
 .comment       0x000000000000005c       0x31 build/default/debug/lcd.o
 .comment       0x000000000000005c       0x31 build/default/debug/hd44780.o
 .comment       0x000000000000005c       0x31 c:/users/tazvi/downloads/avr8-gnu-toolchain-3.7.0.1796-win32.any.x86_64 (1)/avr8-gnu-toolchain-win32_x86_64/bin/../lib/gcc/avr/7.3.0/../../../../avr/lib/avr5\libc.a(fprintf.o)
 .comment       0x000000000000005c       0x31 c:/users/tazvi/downloads/avr8-gnu-toolchain-3.7.0.1796-win32.any.x86_64 (1)/avr8-gnu-toolchain-win32_x86_64/bin/../lib/gcc/avr/7.3.0/../../../../avr/lib/avr5\libc.a(fputc.o)

.note.gnu.avr.deviceinfo
                0x0000000000000000       0x40
 .note.gnu.avr.deviceinfo
                0x0000000000000000       0x40 C:/Users/tazvi/.mchp_packs/Microchip/ATmega_DFP/3.2.269/gcc/dev/atmega328p/avr5/crtatmega328p.o

.note.gnu.build-id
 *(.note.gnu.build-id)

.debug
 *(.debug)

.line
 *(.line)

.debug_srcinfo
 *(.debug_srcinfo)

.debug_sfnames
 *(.debug_sfnames)

.debug_aranges  0x0000000000000000       0xa0
 *(.debug_aranges)
 .debug_aranges
                0x0000000000000000       0x28 build/default/debug/Button_Mode.o
 .debug_aranges
                0x0000000000000028       0x28 build/default/debug/lcd.o
 .debug_aranges
                0x0000000000000050       0x50 build/default/debug/hd44780.o

.debug_pubnames
 *(.debug_pubnames)

.debug_info     0x0000000000000000     0x113a
 *(.debug_info .gnu.linkonce.wi.*)
 .debug_info    0x0000000000000000      0x5f4 C:/Users/tazvi/.mchp_packs/Microchip/ATmega_DFP/3.2.269/gcc/dev/atmega328p/avr5/crtatmega328p.o
 .debug_info    0x00000000000005f4      0x322 build/default/debug/Button_Mode.o
 .debug_info    0x0000000000000916      0x2e2 build/default/debug/lcd.o
 .debug_info    0x0000000000000bf8      0x542 build/default/debug/hd44780.o

.debug_abbrev   0x0000000000000000      0xb0a
 *(.debug_abbrev)
 .debug_abbrev  0x0000000000000000      0x5a2 C:/Users/tazvi/.mchp_packs/Microchip/ATmega_DFP/3.2.269/gcc/dev/atmega328p/avr5/crtatmega328p.o
 .debug_abbrev  0x00000000000005a2      0x1f4 build/default/debug/Button_Mode.o
 .debug_abbrev  0x0000000000000796      0x176 build/default/debug/lcd.o
 .debug_abbrev  0x000000000000090c      0x1fe build/default/debug/hd44780.o

.debug_line     0x0000000000000000      0x7b4
 *(.debug_line .debug_line.* .debug_line_end)
 .debug_line    0x0000000000000000      0x134 C:/Users/tazvi/.mchp_packs/Microchip/ATmega_DFP/3.2.269/gcc/dev/atmega328p/avr5/crtatmega328p.o
 .debug_line    0x0000000000000134      0x22a build/default/debug/Button_Mode.o
 .debug_line    0x000000000000035e      0x151 build/default/debug/lcd.o
 .debug_line    0x00000000000004af      0x305 build/default/debug/hd44780.o

.debug_frame    0x0000000000000000      0x128
 *(.debug_frame)
 .debug_frame   0x0000000000000000       0x50 build/default/debug/Button_Mode.o
 .debug_frame   0x0000000000000050       0x3c build/default/debug/lcd.o
 .debug_frame   0x000000000000008c       0x9c build/default/debug/hd44780.o

.debug_str      0x0000000000000000      0x4e4
 *(.debug_str)
 .debug_str     0x0000000000000000      0x208 C:/Users/tazvi/.mchp_packs/Microchip/ATmega_DFP/3.2.269/gcc/dev/atmega328p/avr5/crtatmega328p.o
 .debug_str     0x0000000000000208      0x20b build/default/debug/Button_Mode.o
                                        0x24d (size before relaxing)
 .debug_str     0x0000000000000413       0x61 build/default/debug/lcd.o
                                        0x1d8 (size before relaxing)
 .debug_str     0x0000000000000474       0x70 build/default/debug/hd44780.o
                                        0x249 (size before relaxing)

.debug_loc      0x0000000000000000      0x54c
 *(.debug_loc)
 .debug_loc     0x0000000000000000      0x132 build/default/debug/Button_Mode.o
 .debug_loc     0x0000000000000132       0xbb build/default/debug/lcd.o
 .debug_loc     0x00000000000001ed      0x35f build/default/debug/hd44780.o

.debug_macinfo
 *(.debug_macinfo)

.debug_weaknames
 *(.debug_weaknames)

.debug_funcnames
 *(.debug_funcnames)

.debug_typenames
 *(.debug_typenames)

.debug_varnames
 *(.debug_varnames)

.debug_pubtypes
 *(.debug_pubtypes)

.debug_ranges   0x0000000000000000       0x70
 *(.debug_ranges)
 .debug_ranges  0x0000000000000000       0x18 build/default/debug/Button_Mode.o
 .debug_ranges  0x0000000000000018       0x18 build/default/debug/lcd.o
 .debug_ranges  0x0000000000000030       0x40 build/default/debug/hd44780.o

.debug_macro
 *(.debug_macro)
OUTPUT(dist/default/debug/Final_Project_Buttons.X.debug.elf elf32-avr)
LOAD linker stubs
